target datalayout = "e-m:e-p270:32:32-p271:32:32-p272:64:64-i64:64-i128:128-f80:128-n8:16:32:64-S128"
target triple = "x86_64-unknown-linux-gnu"

%struct.stb_easy_font_info_struct = type { i8, i8, i8 }

@stb_easy_font_spacing_val = global float 0.000000e+00, align 4

; Function Attrs: nounwind uwtable
define i32 @stb_easy_font_width(ptr noundef %text) #0 {
entry:
  %text.addr = alloca ptr, align 8
  %len = alloca float, align 4
  %max_len = alloca float, align 4
  store ptr %text, ptr %text.addr, align 8
  store float 0.000000e+00, ptr %len, align 4
  store float 0.000000e+00, ptr %max_len, align 4
  br label %while.cond

while.cond:                                       ; preds = %if.end9, %entry
  %0 = load ptr, ptr %text.addr, align 8
  %1 = load i8, ptr %0, align 1
  %tobool = icmp ne i8 %1, 0
  br i1 %tobool, label %while.body, label %while.end

while.body:                                       ; preds = %while.cond
  %2 = load ptr, ptr %text.addr, align 8
  %3 = load i8, ptr %2, align 1
  %conv = sext i8 %3 to i32
  %cmp = icmp eq i32 %conv, 10
  br i1 %cmp, label %if.then, label %if.else

if.then:                                          ; preds = %while.body
  %4 = load float, ptr %len, align 4
  %5 = load float, ptr %max_len, align 4
  %cmp2 = fcmp ogt float %4, %5
  br i1 %cmp2, label %if.then4, label %if.end

if.then4:                                         ; preds = %if.then
  %6 = load float, ptr %len, align 4
  store float %6, ptr %max_len, align 4
  br label %if.end

if.end:                                           ; preds = %if.then4, %if.then
  store float 0.000000e+00, ptr %len, align 4
  br label %if.end9

if.else:                                          ; preds = %while.body
  %7 = load ptr, ptr %text.addr, align 8
  %8 = load i8, ptr %7, align 1
  %conv5 = sext i8 %8 to i32
  %sub = sub nsw i32 %conv5, 32
  %idxprom = sext i32 %sub to i64
  %arrayidx = getelementptr inbounds [96 x %struct.stb_easy_font_info_struct], ptr @stb_easy_font_charinfo, i64 0, i64 %idxprom
  %advance = getelementptr inbounds %struct.stb_easy_font_info_struct, ptr %arrayidx, i32 0, i32 0
  %9 = load i8, ptr %advance, align 1
  %conv6 = zext i8 %9 to i32
  %and = and i32 %conv6, 15
  %conv7 = sitofp i32 %and to float
  %10 = load float, ptr %len, align 4
  %add = fadd float %10, %conv7
  store float %add, ptr %len, align 4
  %11 = load float, ptr @stb_easy_font_spacing_val, align 4
  %12 = load float, ptr %len, align 4
  %add8 = fadd float %12, %11
  store float %add8, ptr %len, align 4
  br label %if.end9

if.end9:                                          ; preds = %if.else, %if.end
  %13 = load ptr, ptr %text.addr, align 8
  %incdec.ptr = getelementptr inbounds i8, ptr %13, i32 1
  store ptr %incdec.ptr, ptr %text.addr, align 8
  br label %while.cond, !llvm.loop !8

while.end:                                        ; preds = %while.cond
  %14 = load float, ptr %len, align 4
  %15 = load float, ptr %max_len, align 4
  %cmp10 = fcmp ogt float %14, %15
  br i1 %cmp10, label %if.then12, label %if.end13

if.then12:                                        ; preds = %while.end
  %16 = load float, ptr %len, align 4
  store float %16, ptr %max_len, align 4
  br label %if.end13

if.end13:                                         ; preds = %if.then12, %while.end
  %17 = load float, ptr %max_len, align 4
  %conv14 = fpext float %17 to double
  %18 = call double @llvm.ceil.f64(double %conv14)
  %conv15 = fptosi double %18 to i32
  ret i32 %conv15
}