; Function Attrs: nofree norecurse nosync nounwind memory(read, inaccessiblemem: none) uwtable
define i32 @stb_easy_font_width(ptr noundef readonly captures(none) %text) local_unnamed_addr #3 {
entry:
  %0 = load float, ptr @stb_easy_font_spacing_val, align 4
  br label %while.cond

while.cond:                                       ; preds = %if.end9, %entry
  %text.addr.0 = phi ptr [ %text, %entry ], [ %incdec.ptr, %if.end9 ]
  %len.0 = phi float [ 0.000000e+00, %entry ], [ %len.1, %if.end9 ]
  %max_len.0 = phi float [ 0.000000e+00, %entry ], [ %max_len.2, %if.end9 ]
  %1 = load i8, ptr %text.addr.0, align 1
  switch i8 %1, label %if.else [
    i8 0, label %while.end
    i8 10, label %if.then
  ]

if.then:                                          ; preds = %while.cond
  %cmp2 = fcmp ogt float %len.0, %max_len.0
  %max_len.1 = select i1 %cmp2, float %len.0, float %max_len.0
  br label %if.end9

if.else:                                          ; preds = %while.cond
  %conv = sext i8 %1 to i64
  %sub = add nsw i64 %conv, -32
  %arrayidx = getelementptr inbounds [96 x %struct.stb_easy_font_info_struct], ptr @stb_easy_font_charinfo, i64 0, i64 %sub
  %2 = load i8, ptr %arrayidx, align 1
  %3 = and i8 %2, 15
  %conv7 = uitofp nneg i8 %3 to float
  %add = fadd float %len.0, %conv7
  %add8 = fadd float %0, %add
  br label %if.end9

if.end9:                                          ; preds = %if.else, %if.then
  %len.1 = phi float [ 0.000000e+00, %if.then ], [ %add8, %if.else ]
  %max_len.2 = phi float [ %max_len.1, %if.then ], [ %max_len.0, %if.else ]
  %incdec.ptr = getelementptr inbounds nuw i8, ptr %text.addr.0, i64 1
  br label %while.cond, !llvm.loop !8

while.end:                                        ; preds = %while.cond
  %cmp10 = fcmp ogt float %len.0, %max_len.0
  %max_len.3 = select i1 %cmp10, float %len.0, float %max_len.0
  %4 = tail call float @llvm.ceil.f32(float %max_len.3)
  %conv15 = fptosi float %4 to i32
  ret i32 %conv15
}